; Function Attrs: nounwind uwtable
define dso_local void @PHP_HAVAL224Final(ptr noundef writeonly captures(none) %0, ptr noundef %1) #1 {
  %3 = alloca [10 x i8], align 1
  call void @llvm.lifetime.start.p0(i64 10, ptr nonnull %3) #7
  %4 = getelementptr inbounds nuw i8, ptr %1, i64 168
  %5 = load i8, ptr %4, align 8, !tbaa !8
  %6 = shl i8 %5, 3
  %7 = and i8 %6, 56
  %8 = or disjoint i8 %7, 1
  %9 = getelementptr inbounds nuw i8, ptr %1, i64 170
  %10 = load i16, ptr %9, align 2, !tbaa !12
  %.tr = trunc i16 %10 to i8
  %11 = shl i8 %.tr, 6
  %12 = or disjoint i8 %11, %8
  store i8 %12, ptr %3, align 1, !tbaa !14
  %13 = lshr i16 %10, 2
  %14 = trunc i16 %13 to i8
  %15 = getelementptr inbounds nuw i8, ptr %3, i64 1
  store i8 %14, ptr %15, align 1, !tbaa !14
  %16 = getelementptr inbounds nuw i8, ptr %3, i64 2
  %17 = getelementptr inbounds nuw i8, ptr %1, i64 32
  br label %18

18:                                               ; preds = %18, %2
  %indvars.iv22.i = phi i64 [ 0, %2 ], [ %indvars.iv.next23.i, %18 ]
  %indvars.iv.i = phi i64 [ 0, %2 ], [ %indvars.iv.next.i, %18 ]
  %19 = getelementptr inbounds nuw i32, ptr %17, i64 %indvars.iv22.i
  %20 = load i32, ptr %19, align 4, !tbaa !4
  %21 = trunc i32 %20 to i8
  %22 = getelementptr inbounds nuw i8, ptr %16, i64 %indvars.iv.i
  store i8 %21, ptr %22, align 1, !tbaa !14
  %23 = lshr i32 %20, 8
  %24 = trunc i32 %23 to i8
  %25 = or disjoint i64 %indvars.iv.i, 1
  %26 = getelementptr inbounds nuw i8, ptr %16, i64 %25
  store i8 %24, ptr %26, align 1, !tbaa !14
  %27 = lshr i32 %20, 16
  %28 = trunc i32 %27 to i8
  %29 = or disjoint i64 %indvars.iv.i, 2
  %30 = getelementptr inbounds nuw i8, ptr %16, i64 %29
  store i8 %28, ptr %30, align 1, !tbaa !14
  %31 = lshr i32 %20, 24
  %32 = trunc nuw i32 %31 to i8
  %33 = or disjoint i64 %indvars.iv.i, 3
  %34 = getelementptr inbounds nuw i8, ptr %16, i64 %33
  store i8 %32, ptr %34, align 1, !tbaa !14
  %indvars.iv.next23.i = add nuw nsw i64 %indvars.iv22.i, 1
  %indvars.iv.next.i = add nuw nsw i64 %indvars.iv.i, 4
  %exitcond.not.i = icmp eq i64 %indvars.iv.next23.i, 2
  br i1 %exitcond.not.i, label %Encode.exit, label %18

Encode.exit:                                      ; preds = %18
  %35 = load i32, ptr %17, align 8, !tbaa !4
  %36 = lshr i32 %35, 3
  %37 = and i32 %36, 127
  %38 = icmp samesign ult i32 %37, 118
  %.v = select i1 %38, i32 118, i32 246
  %39 = sub nsw i32 %.v, %37
  %40 = zext i32 %39 to i64
  %41 = shl nsw i32 %39, 3
  %42 = add i32 %41, %35
  store i32 %42, ptr %17, align 8, !tbaa !4
  %43 = icmp ult i32 %42, %41
  %44 = getelementptr inbounds nuw i8, ptr %1, i64 36
  %45 = load i32, ptr %44, align 4, !tbaa !4
  %46 = zext i1 %43 to i32
  %47 = lshr i32 %39, 29
  %48 = add i32 %47, %45
  %49 = add i32 %48, %46
  store i32 %49, ptr %44, align 4, !tbaa !4
  %50 = sub nuw nsw i32 128, %37
  %.not.i = icmp ult i32 %39, %50
  br i1 %.not.i, label %65, label %51

51:                                               ; preds = %Encode.exit
  %52 = zext nneg i32 %50 to i64
  %53 = getelementptr inbounds nuw i8, ptr %1, i64 40
  %54 = zext nneg i32 %37 to i64
  %55 = getelementptr inbounds nuw [128 x i8], ptr %53, i64 0, i64 %54
  tail call void @llvm.memcpy.p0.p0.i64(ptr noundef nonnull align 1 dereferenceable(1) %55, ptr noundef nonnull align 16 dereferenceable(1) @PADDING, i64 %52, i1 false)
  %56 = getelementptr inbounds nuw i8, ptr %1, i64 176
  %57 = load ptr, ptr %56, align 8, !tbaa !13
  tail call void %57(ptr noundef nonnull %1, ptr noundef nonnull %53) #7
  %58 = add nuw nsw i64 %52, 127
  %59 = icmp samesign ult i64 %58, %40
  br i1 %59, label %.lr.ph.i, label %PHP_HAVALUpdate.exit

.lr.ph.i:                                         ; preds = %51, %.lr.ph.i
  %.033.i = phi i64 [ %62, %.lr.ph.i ], [ %52, %51 ]
  %60 = load ptr, ptr %56, align 8, !tbaa !13
  %61 = getelementptr inbounds nuw i8, ptr @PADDING, i64 %.033.i
  tail call void %60(ptr noundef nonnull %1, ptr noundef nonnull %61) #7
  %62 = add nuw nsw i64 %.033.i, 128
  %63 = add nuw nsw i64 %.033.i, 255
  %64 = icmp samesign ult i64 %63, %40
  br i1 %64, label %.lr.ph.i, label %PHP_HAVALUpdate.exit

65:                                               ; preds = %Encode.exit
  %66 = zext nneg i32 %37 to i64
  br label %PHP_HAVALUpdate.exit

PHP_HAVALUpdate.exit:                             ; preds = %.lr.ph.i, %51, %65
  %.030.i = phi i64 [ %66, %65 ], [ 0, %51 ], [ 0, %.lr.ph.i ]
  %.1.i = phi i64 [ 0, %65 ], [ %52, %51 ], [ %62, %.lr.ph.i ]
  %67 = getelementptr inbounds nuw i8, ptr %1, i64 40
  %68 = getelementptr inbounds nuw [128 x i8], ptr %67, i64 0, i64 %.030.i
  %69 = getelementptr inbounds nuw i8, ptr @PADDING, i64 %.1.i
  %70 = sub i64 %40, %.1.i
  tail call void @llvm.memcpy.p0.p0.i64(ptr nonnull align 1 %68, ptr nonnull align 1 %69, i64 %70, i1 false)
  %71 = load i32, ptr %17, align 8, !tbaa !4
  %72 = lshr i32 %71, 3
  %73 = and i32 %72, 127
  %74 = add i32 %71, 80
  store i32 %74, ptr %17, align 8, !tbaa !4
  %75 = icmp ugt i32 %71, -81
  %76 = load i32, ptr %44, align 4, !tbaa !4
  %77 = zext i1 %75 to i32
  %78 = add i32 %76, %77
  store i32 %78, ptr %44, align 4, !tbaa !4
  %.not.i27 = icmp samesign ult i32 %73, 118
  br i1 %.not.i27, label %86, label %79

79:                                               ; preds = %PHP_HAVALUpdate.exit
  %80 = sub nuw nsw i32 128, %73
  %81 = zext nneg i32 %80 to i64
  %82 = zext nneg i32 %73 to i64
  %83 = getelementptr inbounds nuw [128 x i8], ptr %67, i64 0, i64 %82
  call void @llvm.memcpy.p0.p0.i64(ptr noundef nonnull align 1 dereferenceable(1) %83, ptr noundef nonnull align 1 dereferenceable(1) %3, i64 %81, i1 false)
  %84 = getelementptr inbounds nuw i8, ptr %1, i64 176
  %85 = load ptr, ptr %84, align 8, !tbaa !13
  tail call void %85(ptr noundef nonnull %1, ptr noundef nonnull %67) #7
  br label %PHP_HAVALUpdate.exit32

86:                                               ; preds = %PHP_HAVALUpdate.exit
  %87 = zext nneg i32 %73 to i64
  br label %PHP_HAVALUpdate.exit32

PHP_HAVALUpdate.exit32:                           ; preds = %86, %79
  %.030.i28 = phi i64 [ %87, %86 ], [ 0, %79 ]
  %.1.i29 = phi i64 [ 0, %86 ], [ %81, %79 ]
  %88 = getelementptr inbounds nuw [128 x i8], ptr %67, i64 0, i64 %.030.i28
  %89 = getelementptr inbounds nuw i8, ptr %3, i64 %.1.i29
  %90 = sub nuw nsw i64 10, %.1.i29
  call void @llvm.memcpy.p0.p0.i64(ptr nonnull align 1 %88, ptr nonnull align 1 %89, i64 %90, i1 false)
  %91 = getelementptr inbounds nuw i8, ptr %1, i64 28
  %92 = load i32, ptr %91, align 4, !tbaa !4
  %93 = and i32 %92, 15
  %94 = getelementptr inbounds nuw i8, ptr %1, i64 24
  %95 = load i32, ptr %94, align 8, !tbaa !4
  %96 = add i32 %95, %93
  store i32 %96, ptr %94, align 8, !tbaa !4
  %97 = lshr i32 %92, 4
  %98 = and i32 %97, 31
  %99 = getelementptr inbounds nuw i8, ptr %1, i64 20
  %100 = load i32, ptr %99, align 4, !tbaa !4
  %101 = add i32 %100, %98
  store i32 %101, ptr %99, align 4, !tbaa !4
  %102 = lshr i32 %92, 9
  %103 = and i32 %102, 15
  %104 = getelementptr inbounds nuw i8, ptr %1, i64 16
  %105 = load i32, ptr %104, align 8, !tbaa !4
  %106 = add i32 %105, %103
  store i32 %106, ptr %104, align 8, !tbaa !4
  %107 = lshr i32 %92, 13
  %108 = and i32 %107, 31
  %109 = getelementptr inbounds nuw i8, ptr %1, i64 12
  %110 = load i32, ptr %109, align 4, !tbaa !4
  %111 = add i32 %110, %108
  store i32 %111, ptr %109, align 4, !tbaa !4
  %112 = lshr i32 %92, 18
  %113 = and i32 %112, 15
  %114 = getelementptr inbounds nuw i8, ptr %1, i64 8
  %115 = load i32, ptr %114, align 8, !tbaa !4
  %116 = add i32 %115, %113
  store i32 %116, ptr %114, align 8, !tbaa !4
  %117 = lshr i32 %92, 22
  %118 = and i32 %117, 31
  %119 = getelementptr inbounds nuw i8, ptr %1, i64 4
  %120 = load i32, ptr %119, align 4, !tbaa !4
  %121 = add i32 %120, %118
  store i32 %121, ptr %119, align 4, !tbaa !4
  %122 = lshr i32 %92, 27
  %123 = load i32, ptr %1, align 8, !tbaa !4
  %124 = add i32 %123, %122
  store i32 %124, ptr %1, align 8, !tbaa !4
  br label %125

125:                                              ; preds = %125, %PHP_HAVALUpdate.exit32
  %indvars.iv22.i33 = phi i64 [ 0, %PHP_HAVALUpdate.exit32 ], [ %indvars.iv.next23.i35, %125 ]
  %indvars.iv.i34 = phi i64 [ 0, %PHP_HAVALUpdate.exit32 ], [ %indvars.iv.next.i36, %125 ]
  %126 = getelementptr inbounds nuw i32, ptr %1, i64 %indvars.iv22.i33
  %127 = load i32, ptr %126, align 4, !tbaa !4
  %128 = trunc i32 %127 to i8
  %129 = getelementptr inbounds nuw i8, ptr %0, i64 %indvars.iv.i34
  store i8 %128, ptr %129, align 1, !tbaa !14
  %130 = load i32, ptr %126, align 4, !tbaa !4
  %131 = lshr i32 %130, 8
  %132 = trunc i32 %131 to i8
  %133 = or disjoint i64 %indvars.iv.i34, 1
  %134 = getelementptr inbounds nuw i8, ptr %0, i64 %133
  store i8 %132, ptr %134, align 1, !tbaa !14
  %135 = load i32, ptr %126, align 4, !tbaa !4
  %136 = lshr i32 %135, 16
  %137 = trunc i32 %136 to i8
  %138 = or disjoint i64 %indvars.iv.i34, 2
  %139 = getelementptr inbounds nuw i8, ptr %0, i64 %138
  store i8 %137, ptr %139, align 1, !tbaa !14
  %140 = load i32, ptr %126, align 4, !tbaa !4
  %141 = lshr i32 %140, 24
  %142 = trunc nuw i32 %141 to i8
  %143 = or disjoint i64 %indvars.iv.i34, 3
  %144 = getelementptr inbounds nuw i8, ptr %0, i64 %143
  store i8 %142, ptr %144, align 1, !tbaa !14
  %indvars.iv.next23.i35 = add nuw nsw i64 %indvars.iv22.i33, 1
  %indvars.iv.next.i36 = add nuw nsw i64 %indvars.iv.i34, 4
  %exitcond.not.i37 = icmp eq i64 %indvars.iv.next23.i35, 7
  br i1 %exitcond.not.i37, label %Encode.exit38, label %125

Encode.exit38:                                    ; preds = %125
  tail call void @explicit_bzero(ptr noundef nonnull %1, i64 noundef 184) #7
  call void @llvm.lifetime.end.p0(i64 10, ptr nonnull %3) #7
  ret void
}